; Function Attrs: mustprogress uwtable
define dso_local noundef i32 @_ZNK22b3GpuRigidBodyPipeline12getNumBodiesEv(ptr nocapture noundef nonnull readonly align 8 dereferenceable(16) %this) local_unnamed_addr #2 align 2 {
entry:
  %m_data = getelementptr inbounds i8, ptr %this, i64 8
  %0 = load ptr, ptr %m_data, align 8
  %m_narrowphase = getelementptr inbounds i8, ptr %0, i64 232
  %1 = load ptr, ptr %m_narrowphase, align 8
  %call = tail call noundef i32 @_ZNK16b3GpuNarrowPhase17getNumRigidBodiesEv(ptr noundef nonnull align 8 dereferenceable(56) %1)
  ret i32 %call
}